; Function Attrs: mustprogress uwtable
define void @_ZN2cv4idftERKNS_11_InputArrayERKNS_12_OutputArrayEii(ptr noundef nonnull align 8 dereferenceable(24) %0, ptr noundef nonnull align 8 dereferenceable(24) %1, i32 noundef %2, i32 noundef %3) local_unnamed_addr #0 personality ptr @__gxx_personality_v0 {
  %5 = alloca %"class.cv::utils::trace::details::Region", align 8
  call void @llvm.lifetime.start.p0(i64 16, ptr nonnull %5) #21
  call void @_ZN2cv5utils5trace7details6RegionC1ERKNS3_21LocationStaticStorageE(ptr noundef nonnull align 8 dereferenceable(12) %5, ptr noundef nonnull align 8 dereferenceable(32) @_ZZN2cv4idftERKNS_11_InputArrayERKNS_12_OutputArrayEiiE26__cv_trace_location_fn3538)
  %6 = or i32 %2, 1
  invoke void @_ZN2cv3dftERKNS_11_InputArrayERKNS_12_OutputArrayEii(ptr noundef nonnull align 8 dereferenceable(24) %0, ptr noundef nonnull align 8 dereferenceable(24) %1, i32 noundef %6, i32 noundef %3)
          to label %7 unwind label %14

7:                                                ; preds = %4
  %8 = getelementptr inbounds nuw i8, ptr %5, i64 8
  %9 = load i32, ptr %8, align 8, !tbaa !118
  %.not.i = icmp eq i32 %9, 0
  br i1 %.not.i, label %_ZN2cv5utils5trace7details6RegionD2Ev.exit, label %10

10:                                               ; preds = %7
  invoke void @_ZN2cv5utils5trace7details6Region7destroyEv(ptr noundef nonnull align 8 dereferenceable(12) %5)
          to label %_ZN2cv5utils5trace7details6RegionD2Ev.exit unwind label %11

11:                                               ; preds = %10
  %12 = landingpad { ptr, i32 }
          catch ptr null
  %13 = extractvalue { ptr, i32 } %12, 0
  call void @__clang_call_terminate(ptr %13) #24
  unreachable

_ZN2cv5utils5trace7details6RegionD2Ev.exit:       ; preds = %7, %10
  call void @llvm.lifetime.end.p0(i64 16, ptr nonnull %5) #21
  ret void

14:                                               ; preds = %4
  %15 = landingpad { ptr, i32 }
          cleanup
  call void @_ZN2cv5utils5trace7details6RegionD2Ev(ptr noundef nonnull align 8 dereferenceable(12) %5) #21
  call void @llvm.lifetime.end.p0(i64 16, ptr nonnull %5) #21
  resume { ptr, i32 } %15
}